target datalayout = "e-m:e-p270:32:32-p271:32:32-p272:64:64-i64:64-i128:128-f80:128-n8:16:32:64-S128"
target triple = "x86_64-pc-linux-gnu"

%struct.Node = type { i32 }
%struct.Expr = type { i32 }
%union.ListCell = type { ptr }
%struct.List = type { i32, i32, i32, ptr, [0 x %union.ListCell] }
%struct.RowExpr = type { %struct.Expr, ptr, i32, i32, ptr, i32 }
%struct.ParseNamespaceItem = type { ptr, ptr, i32, ptr, ptr, i8, i8, i8, i8, i32 }
%struct.Alias = type { i32, ptr, ptr }
%struct.RangeTblEntry = type { i32, ptr, ptr, i32, i32, i8, i8, i32, i32, ptr, ptr, i8, i32, i32, ptr, ptr, ptr, ptr, ptr, i8, ptr, ptr, ptr, i32, i8, ptr, ptr, ptr, ptr, double, ptr, i8, i8, ptr }
%struct.Var = type { %struct.Expr, i32, i16, i32, i32, i32, ptr, i32, i32, i32, i16, i32 }

; Function Attrs: inlinehint nounwind uwtable
define internal i32 @list_length(ptr noundef %0) #4 {
  %2 = alloca ptr, align 8
  store ptr %0, ptr %2, align 8
  %3 = load ptr, ptr %2, align 8
  %4 = icmp ne ptr %3, null
  br i1 %4, label %5, label %9

5:                                                ; preds = %1
  %6 = load ptr, ptr %2, align 8
  %7 = getelementptr inbounds nuw %struct.List, ptr %6, i32 0, i32 1
  %8 = load i32, ptr %7, align 4
  br label %10

9:                                                ; preds = %1
  br label %10

10:                                               ; preds = %9, %5
  %11 = phi i32 [ %8, %5 ], [ 0, %9 ]
  ret i32 %11
}

; Function Attrs: inlinehint nounwind uwtable
define internal ptr @newNode(i64 noundef %0, i32 noundef %1) #4 {
  %3 = alloca i64, align 8
  %4 = alloca i32, align 4
  %5 = alloca ptr, align 8
  store i64 %0, ptr %3, align 8
  store i32 %1, ptr %4, align 4
  call void @llvm.lifetime.start.p0(i64 8, ptr %5) #8
  %6 = load i64, ptr %3, align 8
  %7 = call ptr @palloc0(i64 noundef %6)
  store ptr %7, ptr %5, align 8
  %8 = load i32, ptr %4, align 4
  %9 = load ptr, ptr %5, align 8
  %10 = getelementptr inbounds nuw %struct.Node, ptr %9, i32 0, i32 0
  store i32 %8, ptr %10, align 4
  %11 = load ptr, ptr %5, align 8
  call void @llvm.lifetime.end.p0(i64 8, ptr %5) #8
  ret ptr %11
}

; Function Attrs: nounwind uwtable
define internal ptr @transformWholeRowRef(ptr noundef %0, ptr noundef %1, i32 noundef %2, i32 noundef %3) #0 {
  %5 = alloca ptr, align 8
  %6 = alloca ptr, align 8
  %7 = alloca ptr, align 8
  %8 = alloca i32, align 4
  %9 = alloca i32, align 4
  %10 = alloca ptr, align 8
  %11 = alloca ptr, align 8
  %12 = alloca ptr, align 8
  store ptr %0, ptr %6, align 8
  store ptr %1, ptr %7, align 8
  store i32 %2, ptr %8, align 4
  store i32 %3, ptr %9, align 4
  %13 = load ptr, ptr %7, align 8
  %14 = getelementptr inbounds nuw %struct.ParseNamespaceItem, ptr %13, i32 0, i32 0
  %15 = load ptr, ptr %14, align 8
  %16 = load ptr, ptr %7, align 8
  %17 = getelementptr inbounds nuw %struct.ParseNamespaceItem, ptr %16, i32 0, i32 1
  %18 = load ptr, ptr %17, align 8
  %19 = getelementptr inbounds nuw %struct.RangeTblEntry, ptr %18, i32 0, i32 2
  %20 = load ptr, ptr %19, align 8
  %21 = icmp eq ptr %15, %20
  br i1 %21, label %27, label %22

22:                                               ; preds = %4
  %23 = load ptr, ptr %7, align 8
  %24 = getelementptr inbounds nuw %struct.ParseNamespaceItem, ptr %23, i32 0, i32 9
  %25 = load i32, ptr %24, align 4
  %26 = icmp ne i32 %25, 0
  br i1 %26, label %27, label %49

27:                                               ; preds = %22, %4
  call void @llvm.lifetime.start.p0(i64 8, ptr %10) #8
  %28 = load ptr, ptr %7, align 8
  %29 = getelementptr inbounds nuw %struct.ParseNamespaceItem, ptr %28, i32 0, i32 1
  %30 = load ptr, ptr %29, align 8
  %31 = load ptr, ptr %7, align 8
  %32 = getelementptr inbounds nuw %struct.ParseNamespaceItem, ptr %31, i32 0, i32 2
  %33 = load i32, ptr %32, align 8
  %34 = load i32, ptr %8, align 4
  %35 = call ptr @makeWholeRowVar(ptr noundef %30, i32 noundef %33, i32 noundef %34, i1 noundef zeroext true)
  store ptr %35, ptr %10, align 8
  %36 = load ptr, ptr %7, align 8
  %37 = getelementptr inbounds nuw %struct.ParseNamespaceItem, ptr %36, i32 0, i32 9
  %38 = load i32, ptr %37, align 4
  %39 = load ptr, ptr %10, align 8
  %40 = getelementptr inbounds nuw %struct.Var, ptr %39, i32 0, i32 8
  store i32 %38, ptr %40, align 4
  %41 = load i32, ptr %9, align 4
  %42 = load ptr, ptr %10, align 8
  %43 = getelementptr inbounds nuw %struct.Var, ptr %42, i32 0, i32 11
  store i32 %41, ptr %43, align 8
  %44 = load ptr, ptr %6, align 8
  %45 = load ptr, ptr %10, align 8
  call void @markNullableIfNeeded(ptr noundef %44, ptr noundef %45)
  %46 = load ptr, ptr %6, align 8
  %47 = load ptr, ptr %10, align 8
  call void @markVarForSelectPriv(ptr noundef %46, ptr noundef %47)
  %48 = load ptr, ptr %10, align 8
  store ptr %48, ptr %5, align 8
  call void @llvm.lifetime.end.p0(i64 8, ptr %10) #8
  br label %88

49:                                               ; preds = %22
  call void @llvm.lifetime.start.p0(i64 8, ptr %11) #8
  call void @llvm.lifetime.start.p0(i64 8, ptr %12) #8
  %50 = load ptr, ptr %7, align 8
  %51 = getelementptr inbounds nuw %struct.ParseNamespaceItem, ptr %50, i32 0, i32 1
  %52 = load ptr, ptr %51, align 8
  %53 = load ptr, ptr %7, align 8
  %54 = getelementptr inbounds nuw %struct.ParseNamespaceItem, ptr %53, i32 0, i32 2
  %55 = load i32, ptr %54, align 8
  %56 = load i32, ptr %8, align 4
  %57 = load ptr, ptr %7, align 8
  %58 = getelementptr inbounds nuw %struct.ParseNamespaceItem, ptr %57, i32 0, i32 9
  %59 = load i32, ptr %58, align 4
  %60 = load i32, ptr %9, align 4
  call void @expandRTE(ptr noundef %52, i32 noundef %55, i32 noundef %56, i32 noundef %59, i32 noundef %60, i1 noundef zeroext false, ptr noundef null, ptr noundef %12)
  %61 = call ptr @newNode(i64 noundef 40, i32 noundef 36)
  store ptr %61, ptr %11, align 8
  %62 = load ptr, ptr %12, align 8
  %63 = load ptr, ptr %7, align 8
  %64 = getelementptr inbounds nuw %struct.ParseNamespaceItem, ptr %63, i32 0, i32 0
  %65 = load ptr, ptr %64, align 8
  %66 = getelementptr inbounds nuw %struct.Alias, ptr %65, i32 0, i32 2
  %67 = load ptr, ptr %66, align 8
  %68 = call i32 @list_length(ptr noundef %67)
  %69 = call ptr @list_truncate(ptr noundef %62, i32 noundef %68)
  %70 = load ptr, ptr %11, align 8
  %71 = getelementptr inbounds nuw %struct.RowExpr, ptr %70, i32 0, i32 1
  store ptr %69, ptr %71, align 8
  %72 = load ptr, ptr %11, align 8
  %73 = getelementptr inbounds nuw %struct.RowExpr, ptr %72, i32 0, i32 2
  store i32 2249, ptr %73, align 8
  %74 = load ptr, ptr %11, align 8
  %75 = getelementptr inbounds nuw %struct.RowExpr, ptr %74, i32 0, i32 3
  store i32 2, ptr %75, align 4
  %76 = load ptr, ptr %7, align 8
  %77 = getelementptr inbounds nuw %struct.ParseNamespaceItem, ptr %76, i32 0, i32 0
  %78 = load ptr, ptr %77, align 8
  %79 = getelementptr inbounds nuw %struct.Alias, ptr %78, i32 0, i32 2
  %80 = load ptr, ptr %79, align 8
  %81 = call ptr @copyObjectImpl(ptr noundef %80)
  %82 = load ptr, ptr %11, align 8
  %83 = getelementptr inbounds nuw %struct.RowExpr, ptr %82, i32 0, i32 4
  store ptr %81, ptr %83, align 8
  %84 = load i32, ptr %9, align 4
  %85 = load ptr, ptr %11, align 8
  %86 = getelementptr inbounds nuw %struct.RowExpr, ptr %85, i32 0, i32 5
  store i32 %84, ptr %86, align 8
  %87 = load ptr, ptr %11, align 8
  store ptr %87, ptr %5, align 8
  call void @llvm.lifetime.end.p0(i64 8, ptr %12) #8
  call void @llvm.lifetime.end.p0(i64 8, ptr %11) #8
  br label %88

88:                                               ; preds = %49, %27
  %89 = load ptr, ptr %5, align 8
  ret ptr %89
}