; Function Attrs: nounwind uwtable
define internal fastcc noundef ptr @transformWholeRowRef(ptr noundef %0, ptr noundef nonnull readonly captures(none) %1, i32 noundef %2, i32 noundef %3) unnamed_addr #0 {
  %5 = alloca ptr, align 8
  %6 = load ptr, ptr %1, align 8
  %7 = getelementptr inbounds nuw i8, ptr %1, i64 8
  %8 = load ptr, ptr %7, align 8
  %9 = getelementptr inbounds nuw i8, ptr %8, i64 16
  %10 = load ptr, ptr %9, align 8
  %11 = icmp eq ptr %6, %10
  br i1 %11, label %15, label %12

12:                                               ; preds = %4
  %13 = getelementptr inbounds nuw i8, ptr %1, i64 44
  %14 = load i32, ptr %13, align 4
  %.not = icmp eq i32 %14, 0
  br i1 %.not, label %23, label %15

15:                                               ; preds = %12, %4
  %16 = getelementptr inbounds nuw i8, ptr %1, i64 16
  %17 = load i32, ptr %16, align 8
  %18 = tail call ptr @makeWholeRowVar(ptr noundef nonnull %8, i32 noundef %17, i32 noundef %2, i1 noundef zeroext true) #9
  %19 = getelementptr inbounds nuw i8, ptr %1, i64 44
  %20 = load i32, ptr %19, align 4
  %21 = getelementptr inbounds nuw i8, ptr %18, i64 36
  store i32 %20, ptr %21, align 4
  %22 = getelementptr inbounds nuw i8, ptr %18, i64 48
  store i32 %3, ptr %22, align 8
  tail call void @markNullableIfNeeded(ptr noundef %0, ptr noundef %18) #9
  tail call void @markVarForSelectPriv(ptr noundef %0, ptr noundef %18) #9
  br label %45

23:                                               ; preds = %12
  call void @llvm.lifetime.start.p0(i64 8, ptr nonnull %5) #9
  %24 = getelementptr inbounds nuw i8, ptr %1, i64 16
  %25 = load i32, ptr %24, align 8
  call void @expandRTE(ptr noundef nonnull %8, i32 noundef %25, i32 noundef %2, i32 noundef 0, i32 noundef %3, i1 noundef zeroext false, ptr noundef null, ptr noundef nonnull %5) #9
  %26 = call noundef ptr @palloc0(i64 noundef 40) #9
  store i32 36, ptr %26, align 4
  %27 = load ptr, ptr %5, align 8
  %28 = load ptr, ptr %1, align 8
  %29 = getelementptr inbounds nuw i8, ptr %28, i64 16
  %30 = load ptr, ptr %29, align 8
  %.not.i = icmp eq ptr %30, null
  br i1 %.not.i, label %list_length.exit, label %31

31:                                               ; preds = %23
  %32 = getelementptr inbounds nuw i8, ptr %30, i64 4
  %33 = load i32, ptr %32, align 4
  br label %list_length.exit

list_length.exit:                                 ; preds = %23, %31
  %34 = phi i32 [ %33, %31 ], [ 0, %23 ]
  %35 = call ptr @list_truncate(ptr noundef %27, i32 noundef %34) #9
  %36 = getelementptr inbounds nuw i8, ptr %26, i64 8
  store ptr %35, ptr %36, align 8
  %37 = getelementptr inbounds nuw i8, ptr %26, i64 16
  store i32 2249, ptr %37, align 8
  %38 = getelementptr inbounds nuw i8, ptr %26, i64 20
  store i32 2, ptr %38, align 4
  %39 = load ptr, ptr %1, align 8
  %40 = getelementptr inbounds nuw i8, ptr %39, i64 16
  %41 = load ptr, ptr %40, align 8
  %42 = call ptr @copyObjectImpl(ptr noundef %41) #9
  %43 = getelementptr inbounds nuw i8, ptr %26, i64 24
  store ptr %42, ptr %43, align 8
  %44 = getelementptr inbounds nuw i8, ptr %26, i64 32
  store i32 %3, ptr %44, align 8
  call void @llvm.lifetime.end.p0(i64 8, ptr nonnull %5) #9
  br label %45

45:                                               ; preds = %list_length.exit, %15
  %.0 = phi ptr [ %18, %15 ], [ %26, %list_length.exit ]
  ret ptr %.0
}